target datalayout = "e-m:e-p270:32:32-p271:32:32-p272:64:64-i64:64-i128:128-f80:128-n8:16:32:64-S128"
target triple = "x86_64-pc-linux-gnu"

%struct.llama_batch = type { i32, ptr, ptr, ptr, ptr, ptr, ptr }

; Function Attrs: mustprogress nounwind uwtable
define void @llama_batch_free(ptr noundef byval(%struct.llama_batch) align 8 %0) #2 {
  %2 = alloca i32, align 4
  %3 = getelementptr inbounds nuw %struct.llama_batch, ptr %0, i32 0, i32 1
  %4 = load ptr, ptr %3, align 8, !tbaa !85
  %5 = icmp ne ptr %4, null
  br i1 %5, label %6, label %9

6:                                                ; preds = %1
  %7 = getelementptr inbounds nuw %struct.llama_batch, ptr %0, i32 0, i32 1
  %8 = load ptr, ptr %7, align 8, !tbaa !85
  call void @free(ptr noundef %8) #16
  br label %9

9:                                                ; preds = %6, %1
  %10 = getelementptr inbounds nuw %struct.llama_batch, ptr %0, i32 0, i32 2
  %11 = load ptr, ptr %10, align 8, !tbaa !90
  %12 = icmp ne ptr %11, null
  br i1 %12, label %13, label %16

13:                                               ; preds = %9
  %14 = getelementptr inbounds nuw %struct.llama_batch, ptr %0, i32 0, i32 2
  %15 = load ptr, ptr %14, align 8, !tbaa !90
  call void @free(ptr noundef %15) #16
  br label %16

16:                                               ; preds = %13, %9
  %17 = getelementptr inbounds nuw %struct.llama_batch, ptr %0, i32 0, i32 3
  %18 = load ptr, ptr %17, align 8, !tbaa !92
  %19 = icmp ne ptr %18, null
  br i1 %19, label %20, label %23

20:                                               ; preds = %16
  %21 = getelementptr inbounds nuw %struct.llama_batch, ptr %0, i32 0, i32 3
  %22 = load ptr, ptr %21, align 8, !tbaa !92
  call void @free(ptr noundef %22) #16
  br label %23

23:                                               ; preds = %20, %16
  %24 = getelementptr inbounds nuw %struct.llama_batch, ptr %0, i32 0, i32 4
  %25 = load ptr, ptr %24, align 8, !tbaa !96
  %26 = icmp ne ptr %25, null
  br i1 %26, label %27, label %30

27:                                               ; preds = %23
  %28 = getelementptr inbounds nuw %struct.llama_batch, ptr %0, i32 0, i32 4
  %29 = load ptr, ptr %28, align 8, !tbaa !96
  call void @free(ptr noundef %29) #16
  br label %30

30:                                               ; preds = %27, %23
  %31 = getelementptr inbounds nuw %struct.llama_batch, ptr %0, i32 0, i32 5
  %32 = load ptr, ptr %31, align 8, !tbaa !98
  %33 = icmp ne ptr %32, null
  br i1 %33, label %34, label %57

34:                                               ; preds = %30
  call void @llvm.lifetime.start.p0(i64 4, ptr %2) #16
  store i32 0, ptr %2, align 4, !tbaa !88
  br label %35

35:                                               ; preds = %51, %34
  %36 = getelementptr inbounds nuw %struct.llama_batch, ptr %0, i32 0, i32 5
  %37 = load ptr, ptr %36, align 8, !tbaa !98
  %38 = load i32, ptr %2, align 4, !tbaa !88
  %39 = sext i32 %38 to i64
  %40 = getelementptr inbounds ptr, ptr %37, i64 %39
  %41 = load ptr, ptr %40, align 8, !tbaa !95
  %42 = icmp ne ptr %41, null
  br i1 %42, label %44, label %43

43:                                               ; preds = %35
  call void @llvm.lifetime.end.p0(i64 4, ptr %2) #16
  br label %54

44:                                               ; preds = %35
  %45 = getelementptr inbounds nuw %struct.llama_batch, ptr %0, i32 0, i32 5
  %46 = load ptr, ptr %45, align 8, !tbaa !98
  %47 = load i32, ptr %2, align 4, !tbaa !88
  %48 = sext i32 %47 to i64
  %49 = getelementptr inbounds ptr, ptr %46, i64 %48
  %50 = load ptr, ptr %49, align 8, !tbaa !95
  call void @free(ptr noundef %50) #16
  br label %51

51:                                               ; preds = %44
  %52 = load i32, ptr %2, align 4, !tbaa !88
  %53 = add nsw i32 %52, 1
  store i32 %53, ptr %2, align 4, !tbaa !88
  br label %35, !llvm.loop !145

54:                                               ; preds = %43
  %55 = getelementptr inbounds nuw %struct.llama_batch, ptr %0, i32 0, i32 5
  %56 = load ptr, ptr %55, align 8, !tbaa !98
  call void @free(ptr noundef %56) #16
  br label %57

57:                                               ; preds = %54, %30
  %58 = getelementptr inbounds nuw %struct.llama_batch, ptr %0, i32 0, i32 6
  %59 = load ptr, ptr %58, align 8, !tbaa !102
  %60 = icmp ne ptr %59, null
  br i1 %60, label %61, label %64

61:                                               ; preds = %57
  %62 = getelementptr inbounds nuw %struct.llama_batch, ptr %0, i32 0, i32 6
  %63 = load ptr, ptr %62, align 8, !tbaa !102
  call void @free(ptr noundef %63) #16
  br label %64

64:                                               ; preds = %61, %57
  ret void
}