; Function Attrs: mustprogress nounwind uwtable
define void @llama_batch_free(ptr noundef readonly byval(%struct.llama_batch) align 8 captures(none) %0) local_unnamed_addr #8 {
  %2 = getelementptr inbounds nuw i8, ptr %0, i64 8
  %3 = load ptr, ptr %2, align 8, !tbaa !73
  %.not = icmp eq ptr %3, null
  br i1 %.not, label %5, label %4

4:                                                ; preds = %1
  tail call void @free(ptr noundef nonnull %3) #21
  br label %5

5:                                                ; preds = %4, %1
  %6 = getelementptr inbounds nuw i8, ptr %0, i64 16
  %7 = load ptr, ptr %6, align 8, !tbaa !80
  %.not9 = icmp eq ptr %7, null
  br i1 %.not9, label %9, label %8

8:                                                ; preds = %5
  tail call void @free(ptr noundef nonnull %7) #21
  br label %9

9:                                                ; preds = %8, %5
  %10 = getelementptr inbounds nuw i8, ptr %0, i64 24
  %11 = load ptr, ptr %10, align 8, !tbaa !83
  %.not10 = icmp eq ptr %11, null
  br i1 %.not10, label %13, label %12

12:                                               ; preds = %9
  tail call void @free(ptr noundef nonnull %11) #21
  br label %13

13:                                               ; preds = %12, %9
  %14 = getelementptr inbounds nuw i8, ptr %0, i64 32
  %15 = load ptr, ptr %14, align 8, !tbaa !85
  %.not11 = icmp eq ptr %15, null
  br i1 %.not11, label %17, label %16

16:                                               ; preds = %13
  tail call void @free(ptr noundef nonnull %15) #21
  br label %17

17:                                               ; preds = %16, %13
  %18 = getelementptr inbounds nuw i8, ptr %0, i64 40
  %19 = load ptr, ptr %18, align 8, !tbaa !89
  %.not12 = icmp eq ptr %19, null
  br i1 %.not12, label %24, label %.preheader

.preheader:                                       ; preds = %17
  %20 = load ptr, ptr %19, align 8, !tbaa !87
  %.not1315 = icmp eq ptr %20, null
  br i1 %.not1315, label %._crit_edge, label %.lr.ph

._crit_edge:                                      ; preds = %.lr.ph, %.preheader
  tail call void @free(ptr noundef nonnull %19) #21
  br label %24

.lr.ph:                                           ; preds = %.preheader, %.lr.ph
  %indvars.iv = phi i64 [ %indvars.iv.next, %.lr.ph ], [ 0, %.preheader ]
  %21 = phi ptr [ %23, %.lr.ph ], [ %20, %.preheader ]
  tail call void @free(ptr noundef nonnull %21) #21
  %indvars.iv.next = add nuw nsw i64 %indvars.iv, 1
  %22 = getelementptr inbounds nuw ptr, ptr %19, i64 %indvars.iv.next
  %23 = load ptr, ptr %22, align 8, !tbaa !87
  %.not13 = icmp eq ptr %23, null
  br i1 %.not13, label %._crit_edge, label %.lr.ph, !llvm.loop !133

24:                                               ; preds = %._crit_edge, %17
  %25 = getelementptr inbounds nuw i8, ptr %0, i64 48
  %26 = load ptr, ptr %25, align 8, !tbaa !94
  %.not14 = icmp eq ptr %26, null
  br i1 %.not14, label %28, label %27

27:                                               ; preds = %24
  tail call void @free(ptr noundef nonnull %26) #21
  br label %28

28:                                               ; preds = %27, %24
  ret void
}